#include <math.h>
#include <stdio.h>
#include <stdlib.h>
#include <string.h>

int h(char a[],char b[])
{
	char c;
	int len,i=0,k=0;
	len=strlen(a);
	c=a[0];
	while(i<len)
	{
		if(a[i]>c)
		{
			c=a[i];
			k=i;
		}
		i++;
	}
	for(i=0;i<=k;i++)
		printf("%c",a[i]);
	for(i=0;i<3;i++)
		printf("%c",b[i]);
	for(i=k+1;i<len;i++)
		printf("%c",a[i]);
	printf("\n");		
		
	return 0;
}
int main()
{
	int h(char a[],char b[]);
	char a[10],b[4],c;
	int i=0;
	while(i<10)
	{
		
	    if(scanf("%s%s",a,b)==EOF) break;
	    else
			h(a,b);
		    i++;
	}
	return 0;
}
