; ModuleID = '20/1313.c'
source_filename = "20/1313.c"
target datalayout = "e-m:e-p270:32:32-p271:32:32-p272:64:64-i64:64-f80:128-n8:16:32:64-S128"
target triple = "x86_64-pc-linux-gnu"

@.str = private unnamed_addr constant [3 x i8] c"%c\00", align 1
@.str.1 = private unnamed_addr constant [2 x i8] c"\0A\00", align 1
@.str.2 = private unnamed_addr constant [5 x i8] c"%s%s\00", align 1

; Function Attrs: noinline nounwind uwtable
define dso_local i32 @h(i8* %0, i8* %1) #0 {
  %3 = alloca i8*, align 8
  %4 = alloca i8*, align 8
  %5 = alloca i8, align 1
  %6 = alloca i32, align 4
  %7 = alloca i32, align 4
  %8 = alloca i32, align 4
  store i8* %0, i8** %3, align 8
  store i8* %1, i8** %4, align 8
  store i32 0, i32* %7, align 4
  store i32 0, i32* %8, align 4
  %9 = load i8*, i8** %3, align 8
  %10 = call i64 @strlen(i8* %9) #3
  %11 = trunc i64 %10 to i32
  store i32 %11, i32* %6, align 4
  %12 = load i8*, i8** %3, align 8
  %13 = getelementptr inbounds i8, i8* %12, i64 0
  %14 = load i8, i8* %13, align 1
  store i8 %14, i8* %5, align 1
  br label %15

15:                                               ; preds = %36, %2
  %16 = load i32, i32* %7, align 4
  %17 = load i32, i32* %6, align 4
  %18 = icmp slt i32 %16, %17
  br i1 %18, label %19, label %39

19:                                               ; preds = %15
  %20 = load i8*, i8** %3, align 8
  %21 = load i32, i32* %7, align 4
  %22 = sext i32 %21 to i64
  %23 = getelementptr inbounds i8, i8* %20, i64 %22
  %24 = load i8, i8* %23, align 1
  %25 = sext i8 %24 to i32
  %26 = load i8, i8* %5, align 1
  %27 = sext i8 %26 to i32
  %28 = icmp sgt i32 %25, %27
  br i1 %28, label %29, label %36

29:                                               ; preds = %19
  %30 = load i8*, i8** %3, align 8
  %31 = load i32, i32* %7, align 4
  %32 = sext i32 %31 to i64
  %33 = getelementptr inbounds i8, i8* %30, i64 %32
  %34 = load i8, i8* %33, align 1
  store i8 %34, i8* %5, align 1
  %35 = load i32, i32* %7, align 4
  store i32 %35, i32* %8, align 4
  br label %36

36:                                               ; preds = %29, %19
  %37 = load i32, i32* %7, align 4
  %38 = add nsw i32 %37, 1
  store i32 %38, i32* %7, align 4
  br label %15

39:                                               ; preds = %15
  store i32 0, i32* %7, align 4
  br label %40

40:                                               ; preds = %52, %39
  %41 = load i32, i32* %7, align 4
  %42 = load i32, i32* %8, align 4
  %43 = icmp sle i32 %41, %42
  br i1 %43, label %44, label %55

44:                                               ; preds = %40
  %45 = load i8*, i8** %3, align 8
  %46 = load i32, i32* %7, align 4
  %47 = sext i32 %46 to i64
  %48 = getelementptr inbounds i8, i8* %45, i64 %47
  %49 = load i8, i8* %48, align 1
  %50 = sext i8 %49 to i32
  %51 = call i32 (i8*, ...) @printf(i8* getelementptr inbounds ([3 x i8], [3 x i8]* @.str, i64 0, i64 0), i32 %50)
  br label %52

52:                                               ; preds = %44
  %53 = load i32, i32* %7, align 4
  %54 = add nsw i32 %53, 1
  store i32 %54, i32* %7, align 4
  br label %40

55:                                               ; preds = %40
  store i32 0, i32* %7, align 4
  br label %56

56:                                               ; preds = %67, %55
  %57 = load i32, i32* %7, align 4
  %58 = icmp slt i32 %57, 3
  br i1 %58, label %59, label %70

59:                                               ; preds = %56
  %60 = load i8*, i8** %4, align 8
  %61 = load i32, i32* %7, align 4
  %62 = sext i32 %61 to i64
  %63 = getelementptr inbounds i8, i8* %60, i64 %62
  %64 = load i8, i8* %63, align 1
  %65 = sext i8 %64 to i32
  %66 = call i32 (i8*, ...) @printf(i8* getelementptr inbounds ([3 x i8], [3 x i8]* @.str, i64 0, i64 0), i32 %65)
  br label %67

67:                                               ; preds = %59
  %68 = load i32, i32* %7, align 4
  %69 = add nsw i32 %68, 1
  store i32 %69, i32* %7, align 4
  br label %56

70:                                               ; preds = %56
  %71 = load i32, i32* %8, align 4
  %72 = add nsw i32 %71, 1
  store i32 %72, i32* %7, align 4
  br label %73

73:                                               ; preds = %85, %70
  %74 = load i32, i32* %7, align 4
  %75 = load i32, i32* %6, align 4
  %76 = icmp slt i32 %74, %75
  br i1 %76, label %77, label %88

77:                                               ; preds = %73
  %78 = load i8*, i8** %3, align 8
  %79 = load i32, i32* %7, align 4
  %80 = sext i32 %79 to i64
  %81 = getelementptr inbounds i8, i8* %78, i64 %80
  %82 = load i8, i8* %81, align 1
  %83 = sext i8 %82 to i32
  %84 = call i32 (i8*, ...) @printf(i8* getelementptr inbounds ([3 x i8], [3 x i8]* @.str, i64 0, i64 0), i32 %83)
  br label %85

85:                                               ; preds = %77
  %86 = load i32, i32* %7, align 4
  %87 = add nsw i32 %86, 1
  store i32 %87, i32* %7, align 4
  br label %73

88:                                               ; preds = %73
  %89 = call i32 (i8*, ...) @printf(i8* getelementptr inbounds ([2 x i8], [2 x i8]* @.str.1, i64 0, i64 0))
  ret i32 0
}

; Function Attrs: nounwind readonly
declare dso_local i64 @strlen(i8*) #1

declare dso_local i32 @printf(i8*, ...) #2

; Function Attrs: noinline nounwind uwtable
define dso_local i32 @main() #0 {
  %1 = alloca i32, align 4
  %2 = alloca [10 x i8], align 1
  %3 = alloca [4 x i8], align 1
  %4 = alloca i8, align 1
  %5 = alloca i32, align 4
  store i32 0, i32* %1, align 4
  store i32 0, i32* %5, align 4
  br label %6

6:                                                ; preds = %19, %0
  %7 = load i32, i32* %5, align 4
  %8 = icmp slt i32 %7, 10
  br i1 %8, label %9, label %22

9:                                                ; preds = %6
  %10 = getelementptr inbounds [10 x i8], [10 x i8]* %2, i64 0, i64 0
  %11 = getelementptr inbounds [4 x i8], [4 x i8]* %3, i64 0, i64 0
  %12 = call i32 (i8*, ...) @__isoc99_scanf(i8* getelementptr inbounds ([5 x i8], [5 x i8]* @.str.2, i64 0, i64 0), i8* %10, i8* %11)
  %13 = icmp eq i32 %12, -1
  br i1 %13, label %14, label %15

14:                                               ; preds = %9
  br label %22

15:                                               ; preds = %9
  %16 = getelementptr inbounds [10 x i8], [10 x i8]* %2, i64 0, i64 0
  %17 = getelementptr inbounds [4 x i8], [4 x i8]* %3, i64 0, i64 0
  %18 = call i32 @h(i8* %16, i8* %17)
  br label %19

19:                                               ; preds = %15
  %20 = load i32, i32* %5, align 4
  %21 = add nsw i32 %20, 1
  store i32 %21, i32* %5, align 4
  br label %6

22:                                               ; preds = %14, %6
  ret i32 0
}

declare dso_local i32 @__isoc99_scanf(i8*, ...) #2


!llvm.module.flags = !{!0}
!llvm.ident = !{!1}

!0 = !{i32 1, !"wchar_size", i32 4}
!1 = !{!"clang version 10.0.0-4ubuntu1 "}
